; Function Attrs: null_pointer_is_valid sspstrong uwtable
define internal fastcc i32 @dissect_kafka_create_delegation_token_response(ptr noundef %0, ptr noundef %1, ptr noundef %2, i32 noundef %3, i16 noundef signext %4) unnamed_addr #0 {
  %6 = tail call zeroext i16 @tvb_get_ntohs(ptr noundef %0, i32 noundef %3)
  %7 = load i32, ptr @hf_kafka_error, align 4
  %8 = tail call ptr @proto_tree_add_item(ptr noundef %2, i32 noundef %7, ptr noundef %0, i32 noundef %3, i32 noundef 2, i32 noundef 0)
  %.not.i.i = icmp eq i16 %6, 0
  br i1 %.not.i.i, label %dissect_kafka_error.exit, label %9

9:                                                ; preds = %5
  %10 = getelementptr inbounds nuw i8, ptr %1, i64 8
  %11 = load ptr, ptr %10, align 8
  %12 = sext i16 %6 to i32
  %13 = tail call ptr @val_to_str(i32 noundef %12, ptr noundef nonnull @kafka_errors, ptr noundef nonnull @.str.628)
  tail call void (ptr, i32, ptr, ...) @col_append_fstr(ptr noundef %11, i32 noundef 25, ptr noundef nonnull @.str.742, ptr noundef %13)
  br label %dissect_kafka_error.exit

dissect_kafka_error.exit:                         ; preds = %5, %9
  %14 = add i32 %3, 2
  %15 = load i32, ptr @hf_kafka_token_principal_type, align 4
  %16 = icmp sgt i16 %4, 1
  %17 = zext i1 %16 to i32
  %18 = tail call fastcc i32 @dissect_kafka_string(ptr noundef %2, i32 noundef %15, ptr noundef %0, ptr noundef %1, i32 noundef %14, i32 noundef %17, ptr noundef null, ptr noundef null)
  %19 = load i32, ptr @hf_kafka_token_principal_name, align 4
  %20 = tail call fastcc i32 @dissect_kafka_string(ptr noundef %2, i32 noundef %19, ptr noundef %0, ptr noundef %1, i32 noundef %18, i32 noundef %17, ptr noundef null, ptr noundef null)
  %21 = load i32, ptr @hf_kafka_token_issue_timestamp, align 4
  %22 = tail call ptr @proto_tree_add_item(ptr noundef %2, i32 noundef %21, ptr noundef %0, i32 noundef %20, i32 noundef 8, i32 noundef 20)
  %23 = add i32 %20, 8
  %24 = load i32, ptr @hf_kafka_token_expiry_timestamp, align 4
  %25 = tail call ptr @proto_tree_add_item(ptr noundef %2, i32 noundef %24, ptr noundef %0, i32 noundef %23, i32 noundef 8, i32 noundef 20)
  %26 = add i32 %20, 16
  %27 = load i32, ptr @hf_kafka_token_max_timestamp, align 4
  %28 = tail call ptr @proto_tree_add_item(ptr noundef %2, i32 noundef %27, ptr noundef %0, i32 noundef %26, i32 noundef 8, i32 noundef 20)
  %29 = add i32 %20, 24
  %30 = load i32, ptr @hf_kafka_token_id, align 4
  %31 = tail call fastcc i32 @dissect_kafka_string(ptr noundef %2, i32 noundef %30, ptr noundef %0, ptr noundef %1, i32 noundef %29, i32 noundef %17, ptr noundef null, ptr noundef null)
  %32 = load i32, ptr @hf_kafka_token_hmac, align 4
  %33 = tail call fastcc i32 @dissect_kafka_bytes(ptr noundef %2, i32 noundef %32, ptr noundef %0, ptr noundef %1, i32 noundef %31, i32 noundef %17)
  %34 = load i32, ptr @hf_kafka_throttle_time, align 4
  %35 = tail call ptr @proto_tree_add_item(ptr noundef %2, i32 noundef %34, ptr noundef %0, i32 noundef %33, i32 noundef 4, i32 noundef 0)
  %36 = add i32 %33, 4
  br i1 %16, label %37, label %39

37:                                               ; preds = %dissect_kafka_error.exit
  %38 = tail call fastcc i32 @dissect_kafka_tagged_fields(ptr noundef %0, ptr noundef %1, ptr noundef %2, i32 noundef %36)
  br label %39

39:                                               ; preds = %37, %dissect_kafka_error.exit
  %.0 = phi i32 [ %38, %37 ], [ %36, %dissect_kafka_error.exit ]
  ret i32 %.0
}